target datalayout = "e-m:e-p270:32:32-p271:32:32-p272:64:64-i64:64-i128:128-f80:128-n8:16:32:64-S128"
target triple = "x86_64-pc-linux-gnu"

%"struct.cv::aruco::zmaxheap" = type { i64, i32, i32, ptr, ptr, ptr }
%"class.cv::AutoBuffer" = type { ptr, i64, [1032 x i8] }

; Function Attrs: mustprogress nounwind uwtable
define linkonce_odr hidden void @_ZN2cv10AutoBufferIcLm1032EE10deallocateEv(ptr noundef nonnull align 8 dereferenceable(1048) %0) #0 comdat align 2 {
  %2 = alloca ptr, align 8
  store ptr %0, ptr %2, align 8
  %3 = load ptr, ptr %2, align 8
  %4 = getelementptr inbounds %"class.cv::AutoBuffer", ptr %3, i32 0, i32 0
  %5 = load ptr, ptr %4, align 8
  %6 = getelementptr inbounds %"class.cv::AutoBuffer", ptr %3, i32 0, i32 2
  %7 = getelementptr inbounds [1032 x i8], ptr %6, i64 0, i64 0
  %8 = icmp ne ptr %5, %7
  br i1 %8, label %9, label %19

9:                                                ; preds = %1
  %10 = getelementptr inbounds %"class.cv::AutoBuffer", ptr %3, i32 0, i32 0
  %11 = load ptr, ptr %10, align 8
  %12 = icmp eq ptr %11, null
  br i1 %12, label %14, label %13

13:                                               ; preds = %9
  call void @_ZdaPv(ptr noundef %11) #16
  br label %14

14:                                               ; preds = %13, %9
  %15 = getelementptr inbounds %"class.cv::AutoBuffer", ptr %3, i32 0, i32 2
  %16 = getelementptr inbounds [1032 x i8], ptr %15, i64 0, i64 0
  %17 = getelementptr inbounds %"class.cv::AutoBuffer", ptr %3, i32 0, i32 0
  store ptr %16, ptr %17, align 8
  %18 = getelementptr inbounds %"class.cv::AutoBuffer", ptr %3, i32 0, i32 1
  store i64 1032, ptr %18, align 8
  br label %19

19:                                               ; preds = %14, %1
  ret void
}

; Function Attrs: mustprogress uwtable
define linkonce_odr hidden void @_ZN2cv10AutoBufferIcLm1032EE8allocateEm(ptr noundef nonnull align 8 dereferenceable(1048) %0, i64 noundef %1) #2 comdat align 2 {
  %3 = alloca ptr, align 8
  %4 = alloca i64, align 8
  store ptr %0, ptr %3, align 8
  store i64 %1, ptr %4, align 8
  %5 = load ptr, ptr %3, align 8
  %6 = load i64, ptr %4, align 8
  %7 = getelementptr inbounds %"class.cv::AutoBuffer", ptr %5, i32 0, i32 1
  %8 = load i64, ptr %7, align 8
  %9 = icmp ule i64 %6, %8
  br i1 %9, label %10, label %13

10:                                               ; preds = %2
  %11 = load i64, ptr %4, align 8
  %12 = getelementptr inbounds %"class.cv::AutoBuffer", ptr %5, i32 0, i32 1
  store i64 %11, ptr %12, align 8
  br label %22

13:                                               ; preds = %2
  call void @_ZN2cv10AutoBufferIcLm1032EE10deallocateEv(ptr noundef nonnull align 8 dereferenceable(1048) %5)
  %14 = load i64, ptr %4, align 8
  %15 = getelementptr inbounds %"class.cv::AutoBuffer", ptr %5, i32 0, i32 1
  store i64 %14, ptr %15, align 8
  %16 = load i64, ptr %4, align 8
  %17 = icmp ugt i64 %16, 1032
  br i1 %17, label %18, label %22

18:                                               ; preds = %13
  %19 = load i64, ptr %4, align 8
  %20 = call noalias noundef nonnull ptr @_Znam(i64 noundef %19) #15
  %21 = getelementptr inbounds %"class.cv::AutoBuffer", ptr %5, i32 0, i32 0
  store ptr %20, ptr %21, align 8
  br label %22

22:                                               ; preds = %18, %13, %10
  ret void
}

; Function Attrs: mustprogress nounwind uwtable
define linkonce_odr hidden void @_ZN2cv10AutoBufferIcLm1032EED2Ev(ptr noundef nonnull align 8 dereferenceable(1048) %0) unnamed_addr #0 comdat align 2 {
  %2 = alloca ptr, align 8
  store ptr %0, ptr %2, align 8
  %3 = load ptr, ptr %2, align 8
  call void @_ZN2cv10AutoBufferIcLm1032EE10deallocateEv(ptr noundef nonnull align 8 dereferenceable(1048) %3)
  ret void
}

; Function Attrs: mustprogress nounwind uwtable
define linkonce_odr hidden noundef ptr @_ZN2cv10AutoBufferIcLm1032EE4dataEv(ptr noundef nonnull align 8 dereferenceable(1048) %0) #0 comdat align 2 {
  %2 = alloca ptr, align 8
  store ptr %0, ptr %2, align 8
  %3 = load ptr, ptr %2, align 8
  %4 = getelementptr inbounds %"class.cv::AutoBuffer", ptr %3, i32 0, i32 0
  %5 = load ptr, ptr %4, align 8
  ret ptr %5
}

; Function Attrs: mustprogress uwtable
define linkonce_odr hidden void @_ZN2cv10AutoBufferIcLm1032EEC2Em(ptr noundef nonnull align 8 dereferenceable(1048) %0, i64 noundef %1) unnamed_addr #2 comdat align 2 {
  %3 = alloca ptr, align 8
  %4 = alloca i64, align 8
  store ptr %0, ptr %3, align 8
  store i64 %1, ptr %4, align 8
  %5 = load ptr, ptr %3, align 8
  %6 = getelementptr inbounds %"class.cv::AutoBuffer", ptr %5, i32 0, i32 2
  %7 = getelementptr inbounds [1032 x i8], ptr %6, i64 0, i64 0
  %8 = getelementptr inbounds %"class.cv::AutoBuffer", ptr %5, i32 0, i32 0
  store ptr %7, ptr %8, align 8
  %9 = getelementptr inbounds %"class.cv::AutoBuffer", ptr %5, i32 0, i32 1
  store i64 1032, ptr %9, align 8
  %10 = load i64, ptr %4, align 8
  call void @_ZN2cv10AutoBufferIcLm1032EE8allocateEm(ptr noundef nonnull align 8 dereferenceable(1048) %5, i64 noundef %10)
  ret void
}

; Function Attrs: mustprogress uwtable
define internal void @_ZN2cv5arucoL13_swap_defaultEPNS0_8zmaxheapEii(ptr noundef %0, i32 noundef %1, i32 noundef %2) #2 personality ptr @__gxx_personality_v0 {
  %4 = alloca ptr, align 8
  %5 = alloca i32, align 4
  %6 = alloca i32, align 4
  %7 = alloca float, align 4
  %8 = alloca %"class.cv::AutoBuffer", align 8
  %9 = alloca ptr, align 8
  %10 = alloca i32, align 4
  store ptr %0, ptr %4, align 8
  store i32 %1, ptr %5, align 4
  store i32 %2, ptr %6, align 4
  %11 = load ptr, ptr %4, align 8
  %12 = getelementptr inbounds %"struct.cv::aruco::zmaxheap", ptr %11, i32 0, i32 3
  %13 = load ptr, ptr %12, align 8
  %14 = load i32, ptr %5, align 4
  %15 = sext i32 %14 to i64
  %16 = getelementptr inbounds float, ptr %13, i64 %15
  %17 = load float, ptr %16, align 4
  store float %17, ptr %7, align 4
  %18 = load ptr, ptr %4, align 8
  %19 = getelementptr inbounds %"struct.cv::aruco::zmaxheap", ptr %18, i32 0, i32 3
  %20 = load ptr, ptr %19, align 8
  %21 = load i32, ptr %6, align 4
  %22 = sext i32 %21 to i64
  %23 = getelementptr inbounds float, ptr %20, i64 %22
  %24 = load float, ptr %23, align 4
  %25 = load ptr, ptr %4, align 8
  %26 = getelementptr inbounds %"struct.cv::aruco::zmaxheap", ptr %25, i32 0, i32 3
  %27 = load ptr, ptr %26, align 8
  %28 = load i32, ptr %5, align 4
  %29 = sext i32 %28 to i64
  %30 = getelementptr inbounds float, ptr %27, i64 %29
  store float %24, ptr %30, align 4
  %31 = load float, ptr %7, align 4
  %32 = load ptr, ptr %4, align 8
  %33 = getelementptr inbounds %"struct.cv::aruco::zmaxheap", ptr %32, i32 0, i32 3
  %34 = load ptr, ptr %33, align 8
  %35 = load i32, ptr %6, align 4
  %36 = sext i32 %35 to i64
  %37 = getelementptr inbounds float, ptr %34, i64 %36
  store float %31, ptr %37, align 4
  %38 = load ptr, ptr %4, align 8
  %39 = getelementptr inbounds %"struct.cv::aruco::zmaxheap", ptr %38, i32 0, i32 0
  %40 = load i64, ptr %39, align 8
  call void @_ZN2cv10AutoBufferIcLm1032EEC2Em(ptr noundef nonnull align 8 dereferenceable(1048) %8, i64 noundef %40)
  %41 = invoke noundef ptr @_ZN2cv10AutoBufferIcLm1032EE4dataEv(ptr noundef nonnull align 8 dereferenceable(1048) %8)
          to label %42 unwind label %94

42:                                               ; preds = %3
  %43 = load ptr, ptr %4, align 8
  %44 = getelementptr inbounds %"struct.cv::aruco::zmaxheap", ptr %43, i32 0, i32 4
  %45 = load ptr, ptr %44, align 8
  %46 = load i32, ptr %5, align 4
  %47 = sext i32 %46 to i64
  %48 = load ptr, ptr %4, align 8
  %49 = getelementptr inbounds %"struct.cv::aruco::zmaxheap", ptr %48, i32 0, i32 0
  %50 = load i64, ptr %49, align 8
  %51 = mul i64 %47, %50
  %52 = getelementptr inbounds i8, ptr %45, i64 %51
  %53 = load ptr, ptr %4, align 8
  %54 = getelementptr inbounds %"struct.cv::aruco::zmaxheap", ptr %53, i32 0, i32 0
  %55 = load i64, ptr %54, align 8
  call void @llvm.memcpy.p0.p0.i64(ptr align 1 %41, ptr align 1 %52, i64 %55, i1 false)
  %56 = load ptr, ptr %4, align 8
  %57 = getelementptr inbounds %"struct.cv::aruco::zmaxheap", ptr %56, i32 0, i32 4
  %58 = load ptr, ptr %57, align 8
  %59 = load i32, ptr %5, align 4
  %60 = sext i32 %59 to i64
  %61 = load ptr, ptr %4, align 8
  %62 = getelementptr inbounds %"struct.cv::aruco::zmaxheap", ptr %61, i32 0, i32 0
  %63 = load i64, ptr %62, align 8
  %64 = mul i64 %60, %63
  %65 = getelementptr inbounds i8, ptr %58, i64 %64
  %66 = load ptr, ptr %4, align 8
  %67 = getelementptr inbounds %"struct.cv::aruco::zmaxheap", ptr %66, i32 0, i32 4
  %68 = load ptr, ptr %67, align 8
  %69 = load i32, ptr %6, align 4
  %70 = sext i32 %69 to i64
  %71 = load ptr, ptr %4, align 8
  %72 = getelementptr inbounds %"struct.cv::aruco::zmaxheap", ptr %71, i32 0, i32 0
  %73 = load i64, ptr %72, align 8
  %74 = mul i64 %70, %73
  %75 = getelementptr inbounds i8, ptr %68, i64 %74
  %76 = load ptr, ptr %4, align 8
  %77 = getelementptr inbounds %"struct.cv::aruco::zmaxheap", ptr %76, i32 0, i32 0
  %78 = load i64, ptr %77, align 8
  call void @llvm.memcpy.p0.p0.i64(ptr align 1 %65, ptr align 1 %75, i64 %78, i1 false)
  %79 = load ptr, ptr %4, align 8
  %80 = getelementptr inbounds %"struct.cv::aruco::zmaxheap", ptr %79, i32 0, i32 4
  %81 = load ptr, ptr %80, align 8
  %82 = load i32, ptr %6, align 4
  %83 = sext i32 %82 to i64
  %84 = load ptr, ptr %4, align 8
  %85 = getelementptr inbounds %"struct.cv::aruco::zmaxheap", ptr %84, i32 0, i32 0
  %86 = load i64, ptr %85, align 8
  %87 = mul i64 %83, %86
  %88 = getelementptr inbounds i8, ptr %81, i64 %87
  %89 = invoke noundef ptr @_ZN2cv10AutoBufferIcLm1032EE4dataEv(ptr noundef nonnull align 8 dereferenceable(1048) %8)
          to label %90 unwind label %94

90:                                               ; preds = %42
  %91 = load ptr, ptr %4, align 8
  %92 = getelementptr inbounds %"struct.cv::aruco::zmaxheap", ptr %91, i32 0, i32 0
  %93 = load i64, ptr %92, align 8
  call void @llvm.memcpy.p0.p0.i64(ptr align 1 %88, ptr align 1 %89, i64 %93, i1 false)
  call void @_ZN2cv10AutoBufferIcLm1032EED2Ev(ptr noundef nonnull align 8 dereferenceable(1048) %8) #12
  ret void

94:                                               ; preds = %42, %3
  %95 = landingpad { ptr, i32 }
          cleanup
  %96 = extractvalue { ptr, i32 } %95, 0
  store ptr %96, ptr %9, align 8
  %97 = extractvalue { ptr, i32 } %95, 1
  store i32 %97, ptr %10, align 4
  call void @_ZN2cv10AutoBufferIcLm1032EED2Ev(ptr noundef nonnull align 8 dereferenceable(1048) %8) #12
  br label %98

98:                                               ; preds = %94
  %99 = load ptr, ptr %9, align 8
  %100 = load i32, ptr %10, align 4
  %101 = insertvalue { ptr, i32 } poison, ptr %99, 0
  %102 = insertvalue { ptr, i32 } %101, i32 %100, 1
  resume { ptr, i32 } %102
}