; Function Attrs: mustprogress uwtable
define internal void @_ZN2cv5arucoL13_swap_defaultEPNS0_8zmaxheapEii(ptr nocapture noundef readonly %0, i32 noundef %1, i32 noundef %2) #2 personality ptr @__gxx_personality_v0 {
  %4 = alloca %"class.cv::AutoBuffer", align 8
  %5 = getelementptr inbounds i8, ptr %0, i64 16
  %6 = load ptr, ptr %5, align 8
  %7 = sext i32 %1 to i64
  %8 = getelementptr inbounds float, ptr %6, i64 %7
  %9 = load float, ptr %8, align 4
  %10 = sext i32 %2 to i64
  %11 = getelementptr inbounds float, ptr %6, i64 %10
  %12 = load float, ptr %11, align 4
  store float %12, ptr %8, align 4
  %13 = load ptr, ptr %5, align 8
  %14 = getelementptr inbounds float, ptr %13, i64 %10
  store float %9, ptr %14, align 4
  %15 = load i64, ptr %0, align 8
  %16 = getelementptr inbounds i8, ptr %4, i64 16
  store ptr %16, ptr %4, align 8
  %17 = getelementptr inbounds i8, ptr %4, i64 8
  %.not.i.i = icmp ugt i64 %15, 1032
  store i64 %15, ptr %17, align 8
  br i1 %.not.i.i, label %18, label %_ZN2cv10AutoBufferIcLm1032EEC2Em.exit

18:                                               ; preds = %3
  %19 = call noalias noundef nonnull ptr @_Znam(i64 noundef %15) #15
  store ptr %19, ptr %4, align 8
  br label %_ZN2cv10AutoBufferIcLm1032EEC2Em.exit

_ZN2cv10AutoBufferIcLm1032EEC2Em.exit:            ; preds = %3, %18
  %20 = phi ptr [ %16, %3 ], [ %19, %18 ]
  %21 = getelementptr inbounds i8, ptr %0, i64 24
  %22 = load ptr, ptr %21, align 8
  %23 = mul i64 %15, %7
  %24 = getelementptr inbounds i8, ptr %22, i64 %23
  call void @llvm.memcpy.p0.p0.i64(ptr nonnull align 1 %20, ptr align 1 %24, i64 %15, i1 false)
  %25 = mul i64 %15, %10
  %26 = getelementptr inbounds i8, ptr %22, i64 %25
  call void @llvm.memcpy.p0.p0.i64(ptr align 1 %24, ptr align 1 %26, i64 %15, i1 false)
  %27 = load ptr, ptr %21, align 8
  %28 = load i64, ptr %0, align 8
  %29 = mul i64 %28, %10
  %30 = getelementptr inbounds i8, ptr %27, i64 %29
  %31 = load ptr, ptr %4, align 8
  call void @llvm.memcpy.p0.p0.i64(ptr align 1 %30, ptr align 1 %31, i64 %28, i1 false)
  %32 = load ptr, ptr %4, align 8
  %.not.i.i24 = icmp eq ptr %32, %16
  %33 = icmp eq ptr %32, null
  %or.cond = or i1 %.not.i.i24, %33
  br i1 %or.cond, label %_ZN2cv10AutoBufferIcLm1032EED2Ev.exit, label %34

34:                                               ; preds = %_ZN2cv10AutoBufferIcLm1032EEC2Em.exit
  call void @_ZdaPv(ptr noundef nonnull %32) #16
  br label %_ZN2cv10AutoBufferIcLm1032EED2Ev.exit

_ZN2cv10AutoBufferIcLm1032EED2Ev.exit:            ; preds = %34, %_ZN2cv10AutoBufferIcLm1032EEC2Em.exit
  ret void
}